; Function Attrs: mustprogress uwtable
define void @_ZN7openvdb5v11_02io8TempFileC2Ev(ptr noundef nonnull align 8 dereferenceable(16) %this, ptr noundef %vtt) unnamed_addr #3 align 2 personality ptr @__gxx_personality_v0 {
entry:
  %0 = getelementptr inbounds i8, ptr %vtt, i64 8
  tail call void @_ZNSoC2EPSt15basic_streambufIcSt11char_traitsIcEE(ptr noundef nonnull align 8 dereferenceable(8) %this, ptr noundef nonnull %0, ptr noundef null)
  %1 = load ptr, ptr %vtt, align 8
  store ptr %1, ptr %this, align 8
  %2 = getelementptr inbounds i8, ptr %vtt, i64 24
  %3 = load ptr, ptr %2, align 8
  %vbase.offset.ptr = getelementptr i8, ptr %1, i64 -24
  %vbase.offset = load i64, ptr %vbase.offset.ptr, align 8
  %add.ptr = getelementptr inbounds i8, ptr %this, i64 %vbase.offset
  store ptr %3, ptr %add.ptr, align 8
  %call = invoke noalias noundef nonnull dereferenceable(192) ptr @_Znwm(i64 noundef 192) #23
          to label %invoke.cont unwind label %lpad

invoke.cont:                                      ; preds = %entry
  invoke void @_ZN7openvdb5v11_02io8TempFile12TempFileImplC2ERSo(ptr noundef nonnull align 8 dereferenceable(188) %call, ptr noundef nonnull align 8 dereferenceable(8) %this)
          to label %invoke.cont4 unwind label %lpad3

invoke.cont4:                                     ; preds = %invoke.cont
  %mImpl = getelementptr inbounds i8, ptr %this, i64 8
  store ptr %call, ptr %mImpl, align 8
  ret void

lpad:                                             ; preds = %entry
  %4 = landingpad { ptr, i32 }
          cleanup
  br label %ehcleanup

lpad3:                                            ; preds = %invoke.cont
  %5 = landingpad { ptr, i32 }
          cleanup
  tail call void @_ZdlPv(ptr noundef nonnull %call) #24
  br label %ehcleanup

ehcleanup:                                        ; preds = %lpad3, %lpad
  %.pn = phi { ptr, i32 } [ %5, %lpad3 ], [ %4, %lpad ]
  tail call void @_ZNSoD2Ev(ptr noundef nonnull align 8 dereferenceable(8) %this, ptr noundef nonnull %0) #25
  resume { ptr, i32 } %.pn
}